target datalayout = "e-m:e-p270:32:32-p271:32:32-p272:64:64-i64:64-i128:128-f80:128-n8:16:32:64-S128"
target triple = "x86_64-pc-linux-gnu"

@crypto_box_curve25519xchacha20poly1305_beforenm.zero = internal constant [16 x i8] zeroinitializer, align 16

; Function Attrs: nounwind ssp uwtable
define dso_local i32 @crypto_box_curve25519xchacha20poly1305_beforenm(ptr noundef nonnull %0, ptr noundef nonnull %1, ptr noundef nonnull %2) #0 {
  %4 = alloca i32, align 4
  %5 = alloca ptr, align 8
  %6 = alloca ptr, align 8
  %7 = alloca ptr, align 8
  %8 = alloca [32 x i8], align 16
  %9 = alloca i32, align 4
  store ptr %0, ptr %5, align 8
  store ptr %1, ptr %6, align 8
  store ptr %2, ptr %7, align 8
  call void @llvm.lifetime.start.p0(i64 32, ptr %8) #7
  %10 = getelementptr inbounds [32 x i8], ptr %8, i64 0, i64 0
  %11 = load ptr, ptr %7, align 8
  %12 = load ptr, ptr %6, align 8
  %13 = call i32 @crypto_scalarmult_curve25519(ptr noundef %10, ptr noundef %11, ptr noundef %12)
  %14 = icmp ne i32 %13, 0
  br i1 %14, label %15, label %16

15:                                               ; preds = %3
  store i32 -1, ptr %4, align 4
  store i32 1, ptr %9, align 4
  br label %20

16:                                               ; preds = %3
  %17 = load ptr, ptr %5, align 8
  %18 = getelementptr inbounds [32 x i8], ptr %8, i64 0, i64 0
  %19 = call i32 @crypto_core_hchacha20(ptr noundef %17, ptr noundef @crypto_box_curve25519xchacha20poly1305_beforenm.zero, ptr noundef %18, ptr noundef null)
  store i32 %19, ptr %4, align 4
  store i32 1, ptr %9, align 4
  br label %20

20:                                               ; preds = %16, %15
  call void @llvm.lifetime.end.p0(i64 32, ptr %8) #7
  %21 = load i32, ptr %4, align 4
  ret i32 %21
}