; Function Attrs: nounwind ssp uwtable
define dso_local i32 @crypto_box_curve25519xchacha20poly1305_beforenm(ptr noundef nonnull %0, ptr noundef nonnull %1, ptr noundef nonnull %2) local_unnamed_addr #0 {
  %4 = alloca [32 x i8], align 16
  call void @llvm.lifetime.start.p0(i64 32, ptr nonnull %4) #6
  %5 = call i32 @crypto_scalarmult_curve25519(ptr noundef nonnull %4, ptr noundef nonnull %2, ptr noundef nonnull %1) #6
  %.not = icmp eq i32 %5, 0
  br i1 %.not, label %6, label %8

6:                                                ; preds = %3
  %7 = call i32 @crypto_core_hchacha20(ptr noundef nonnull %0, ptr noundef nonnull @crypto_box_curve25519xchacha20poly1305_beforenm.zero, ptr noundef nonnull %4, ptr noundef null) #6
  br label %8

8:                                                ; preds = %3, %6
  %.0 = phi i32 [ %7, %6 ], [ -1, %3 ]
  call void @llvm.lifetime.end.p0(i64 32, ptr nonnull %4) #6
  ret i32 %.0
}